target datalayout = "e-m:e-p270:32:32-p271:32:32-p272:64:64-i64:64-i128:128-f80:128-n8:16:32:64-S128"
target triple = "x86_64-pc-linux-gnu"

%struct.llama_batch = type { i32, ptr, ptr, ptr, ptr, ptr, ptr }

; Function Attrs: mustprogress nounwind uwtable
define void @llama_batch_init(ptr dead_on_unwind noalias writable sret(%struct.llama_batch) align 8 %0, i32 noundef %1, i32 noundef %2, i32 noundef %3) #2 {
  %5 = alloca i32, align 4
  %6 = alloca i32, align 4
  %7 = alloca i32, align 4
  %8 = alloca i32, align 4
  store i32 %1, ptr %5, align 4, !tbaa !88
  store i32 %2, ptr %6, align 4, !tbaa !88
  store i32 %3, ptr %7, align 4, !tbaa !88
  call void @llvm.memset.p0.i64(ptr align 8 %0, i8 0, i64 56, i1 false)
  %9 = load i32, ptr %6, align 4, !tbaa !88
  %10 = icmp ne i32 %9, 0
  br i1 %10, label %11, label %20

11:                                               ; preds = %4
  %12 = load i32, ptr %5, align 4, !tbaa !88
  %13 = sext i32 %12 to i64
  %14 = mul i64 4, %13
  %15 = load i32, ptr %6, align 4, !tbaa !88
  %16 = sext i32 %15 to i64
  %17 = mul i64 %14, %16
  %18 = call noalias ptr @malloc(i64 noundef %17) #20
  %19 = getelementptr inbounds nuw %struct.llama_batch, ptr %0, i32 0, i32 2
  store ptr %18, ptr %19, align 8, !tbaa !90
  br label %26

20:                                               ; preds = %4
  %21 = load i32, ptr %5, align 4, !tbaa !88
  %22 = sext i32 %21 to i64
  %23 = mul i64 4, %22
  %24 = call noalias ptr @malloc(i64 noundef %23) #20
  %25 = getelementptr inbounds nuw %struct.llama_batch, ptr %0, i32 0, i32 1
  store ptr %24, ptr %25, align 8, !tbaa !85
  br label %26

26:                                               ; preds = %20, %11
  %27 = load i32, ptr %5, align 4, !tbaa !88
  %28 = sext i32 %27 to i64
  %29 = mul i64 4, %28
  %30 = call noalias ptr @malloc(i64 noundef %29) #20
  %31 = getelementptr inbounds nuw %struct.llama_batch, ptr %0, i32 0, i32 3
  store ptr %30, ptr %31, align 8, !tbaa !92
  %32 = load i32, ptr %5, align 4, !tbaa !88
  %33 = sext i32 %32 to i64
  %34 = mul i64 4, %33
  %35 = call noalias ptr @malloc(i64 noundef %34) #20
  %36 = getelementptr inbounds nuw %struct.llama_batch, ptr %0, i32 0, i32 4
  store ptr %35, ptr %36, align 8, !tbaa !96
  %37 = load i32, ptr %5, align 4, !tbaa !88
  %38 = add nsw i32 %37, 1
  %39 = sext i32 %38 to i64
  %40 = mul i64 8, %39
  %41 = call noalias ptr @malloc(i64 noundef %40) #20
  %42 = getelementptr inbounds nuw %struct.llama_batch, ptr %0, i32 0, i32 5
  store ptr %41, ptr %42, align 8, !tbaa !98
  call void @llvm.lifetime.start.p0(i64 4, ptr %8) #16
  store i32 0, ptr %8, align 4, !tbaa !88
  br label %43

43:                                               ; preds = %58, %26
  %44 = load i32, ptr %8, align 4, !tbaa !88
  %45 = load i32, ptr %5, align 4, !tbaa !88
  %46 = icmp slt i32 %44, %45
  br i1 %46, label %48, label %47

47:                                               ; preds = %43
  call void @llvm.lifetime.end.p0(i64 4, ptr %8) #16
  br label %61

48:                                               ; preds = %43
  %49 = load i32, ptr %7, align 4, !tbaa !88
  %50 = sext i32 %49 to i64
  %51 = mul i64 4, %50
  %52 = call noalias ptr @malloc(i64 noundef %51) #20
  %53 = getelementptr inbounds nuw %struct.llama_batch, ptr %0, i32 0, i32 5
  %54 = load ptr, ptr %53, align 8, !tbaa !98
  %55 = load i32, ptr %8, align 4, !tbaa !88
  %56 = sext i32 %55 to i64
  %57 = getelementptr inbounds ptr, ptr %54, i64 %56
  store ptr %52, ptr %57, align 8, !tbaa !95
  br label %58

58:                                               ; preds = %48
  %59 = load i32, ptr %8, align 4, !tbaa !88
  %60 = add nsw i32 %59, 1
  store i32 %60, ptr %8, align 4, !tbaa !88
  br label %43, !llvm.loop !144

61:                                               ; preds = %47
  %62 = getelementptr inbounds nuw %struct.llama_batch, ptr %0, i32 0, i32 5
  %63 = load ptr, ptr %62, align 8, !tbaa !98
  %64 = load i32, ptr %5, align 4, !tbaa !88
  %65 = sext i32 %64 to i64
  %66 = getelementptr inbounds ptr, ptr %63, i64 %65
  store ptr null, ptr %66, align 8, !tbaa !95
  %67 = load i32, ptr %5, align 4, !tbaa !88
  %68 = sext i32 %67 to i64
  %69 = mul i64 1, %68
  %70 = call noalias ptr @malloc(i64 noundef %69) #20
  %71 = getelementptr inbounds nuw %struct.llama_batch, ptr %0, i32 0, i32 6
  store ptr %70, ptr %71, align 8, !tbaa !102
  ret void
}