; Function Attrs: mustprogress nofree nounwind memory(write, inaccessiblemem: readwrite) uwtable
define void @llama_batch_init(ptr dead_on_unwind noalias writable writeonly sret(%struct.llama_batch) align 8 captures(none) initializes((0, 48)) %0, i32 noundef %1, i32 noundef %2, i32 noundef %3) local_unnamed_addr #6 {
  tail call void @llvm.memset.p0.i64(ptr noundef nonnull align 8 dereferenceable(56) %0, i8 0, i64 24, i1 false)
  %.not = icmp eq i32 %2, 0
  %5 = sext i32 %1 to i64
  %6 = shl nsw i64 %5, 2
  %narrow = tail call i32 @llvm.umax.i32(i32 %2, i32 1)
  %7 = sext i32 %narrow to i64
  %.sink20 = mul i64 %6, %7
  %.sink19 = select i1 %.not, i64 8, i64 16
  %8 = tail call noalias ptr @malloc(i64 noundef %.sink20) #20
  %9 = getelementptr inbounds nuw i8, ptr %0, i64 %.sink19
  store ptr %8, ptr %9, align 8, !tbaa !131
  %10 = tail call noalias ptr @malloc(i64 noundef %6) #20
  %11 = getelementptr inbounds nuw i8, ptr %0, i64 24
  store ptr %10, ptr %11, align 8, !tbaa !83
  %12 = tail call noalias ptr @malloc(i64 noundef %6) #20
  %13 = getelementptr inbounds nuw i8, ptr %0, i64 32
  store ptr %12, ptr %13, align 8, !tbaa !85
  %14 = add nsw i32 %1, 1
  %15 = sext i32 %14 to i64
  %16 = shl nsw i64 %15, 3
  %17 = tail call noalias ptr @malloc(i64 noundef %16) #20
  %18 = getelementptr inbounds nuw i8, ptr %0, i64 40
  store ptr %17, ptr %18, align 8, !tbaa !89
  %19 = icmp sgt i32 %1, 0
  br i1 %19, label %.lr.ph, label %._crit_edge

.lr.ph:                                           ; preds = %4
  %20 = sext i32 %3 to i64
  %21 = shl nsw i64 %20, 2
  %wide.trip.count = zext nneg i32 %1 to i64
  br label %25

._crit_edge:                                      ; preds = %25, %4
  %22 = getelementptr inbounds ptr, ptr %17, i64 %5
  store ptr null, ptr %22, align 8, !tbaa !87
  %23 = tail call noalias ptr @malloc(i64 noundef %5) #20
  %24 = getelementptr inbounds nuw i8, ptr %0, i64 48
  store ptr %23, ptr %24, align 8, !tbaa !94
  ret void

25:                                               ; preds = %.lr.ph, %25
  %indvars.iv = phi i64 [ 0, %.lr.ph ], [ %indvars.iv.next, %25 ]
  %26 = tail call noalias ptr @malloc(i64 noundef %21) #20
  %27 = getelementptr inbounds nuw ptr, ptr %17, i64 %indvars.iv
  store ptr %26, ptr %27, align 8, !tbaa !87
  %indvars.iv.next = add nuw nsw i64 %indvars.iv, 1
  %exitcond.not = icmp eq i64 %indvars.iv.next, %wide.trip.count
  br i1 %exitcond.not, label %._crit_edge, label %25, !llvm.loop !132
}